; Function Attrs: nounwind uwtable
define dso_local range(i32 0, 2) i32 @luaL_getmetafield(ptr noundef %0, i32 noundef %1, ptr noundef %2) local_unnamed_addr #1 {
  %4 = tail call i32 @lua_getmetatable(ptr noundef %0, i32 noundef %1)
  %.not = icmp eq i32 %4, 0
  br i1 %.not, label %23, label %5

5:                                                ; preds = %3
  %6 = getelementptr inbounds nuw i8, ptr %0, i64 40
  %7 = load ptr, ptr %6, align 8, !tbaa !14
  %8 = getelementptr inbounds i8, ptr %7, i64 -8
  %9 = load i64, ptr %8, align 8, !tbaa !17
  %10 = and i64 %9, 140737488355327
  %11 = inttoptr i64 %10 to ptr
  %12 = tail call i64 @strlen(ptr noundef nonnull dereferenceable(1) %2) #15
  %13 = tail call ptr @lj_str_new(ptr noundef %0, ptr noundef nonnull %2, i64 noundef %12) #13
  %14 = tail call ptr @lj_tab_getstr(ptr noundef %11, ptr noundef %13) #13
  %.not15 = icmp eq ptr %14, null
  br i1 %.not15, label %.thread, label %15

15:                                               ; preds = %5
  %16 = load i64, ptr %14, align 8, !tbaa !17
  %17 = icmp eq i64 %16, -1
  br i1 %17, label %.thread, label %20

.thread:                                          ; preds = %5, %15
  %18 = load ptr, ptr %6, align 8, !tbaa !14
  %19 = getelementptr inbounds i8, ptr %18, i64 -8
  store ptr %19, ptr %6, align 8, !tbaa !14
  br label %23

20:                                               ; preds = %15
  %21 = load ptr, ptr %6, align 8, !tbaa !14
  %22 = getelementptr inbounds i8, ptr %21, i64 -8
  store i64 %16, ptr %22, align 8, !tbaa !17
  br label %23

23:                                               ; preds = %3, %.thread, %20
  %.1 = phi i32 [ 1, %20 ], [ 0, %.thread ], [ 0, %3 ]
  ret i32 %.1
}